; Function Attrs: mustprogress uwtable
define noundef ptr @_ZN6icu_7725ScientificNumberFormatter25createSuperscriptInstanceERKNS_6LocaleER10UErrorCode(ptr noundef nonnull align 8 dereferenceable(217) %0, ptr noundef nonnull align 4 dereferenceable(4) %1) local_unnamed_addr #0 align 2 personality ptr @__gxx_personality_v0 {
  %3 = tail call noundef ptr @_ZN6icu_7712NumberFormat24createScientificInstanceERKNS_6LocaleER10UErrorCode(ptr noundef nonnull align 8 dereferenceable(217) %0, ptr noundef nonnull align 4 dereferenceable(4) %1)
  %4 = tail call noundef ptr @_ZN6icu_777UMemorynwEm(i64 noundef 8) #7
  %5 = icmp eq ptr %4, null
  br i1 %5, label %7, label %6

6:                                                ; preds = %2
  store ptr getelementptr inbounds nuw inrange(-16, 40) (i8, ptr @_ZTVN6icu_7725ScientificNumberFormatter16SuperscriptStyleE, i64 16), ptr %4, align 8, !tbaa !3
  br label %7

7:                                                ; preds = %6, %2
  %8 = load i32, ptr %1, align 4, !tbaa !6
  %9 = icmp slt i32 %8, 1
  br i1 %9, label %10, label %24

10:                                               ; preds = %7
  %11 = tail call noundef ptr @_ZN6icu_777UMemorynwEm(i64 noundef 88) #7
  %12 = icmp eq ptr %11, null
  br i1 %12, label %14, label %13

13:                                               ; preds = %10
  invoke void @_ZN6icu_7725ScientificNumberFormatterC1EPNS_13DecimalFormatEPNS0_5StyleER10UErrorCode(ptr noundef nonnull align 8 dereferenceable(88) %11, ptr noundef %3, ptr noundef %4, ptr noundef nonnull align 4 dereferenceable(4) %1)
          to label %21 unwind label %15

14:                                               ; preds = %10
  store i32 7, ptr %1, align 4, !tbaa !6
  br label %24

15:                                               ; preds = %13
  %16 = landingpad { ptr, i32 }
          cleanup
  tail call void @_ZN6icu_777UMemorydlEPv(ptr noundef nonnull %11) #7
  br i1 %5, label %_ZN6icu_7712LocalPointerINS_25ScientificNumberFormatter5StyleEED2Ev.exit.i, label %17

17:                                               ; preds = %15
  %18 = load ptr, ptr %4, align 8, !tbaa !3
  %19 = getelementptr inbounds nuw i8, ptr %18, i64 8
  %20 = load ptr, ptr %19, align 8
  tail call void %20(ptr noundef nonnull align 8 dereferenceable(8) %4) #7
  br label %_ZN6icu_7712LocalPointerINS_25ScientificNumberFormatter5StyleEED2Ev.exit.i

21:                                               ; preds = %13
  %22 = load i32, ptr %1, align 4, !tbaa !6
  %23 = icmp slt i32 %22, 1
  br i1 %23, label %_ZN6icu_7725ScientificNumberFormatter14createInstanceEPNS_13DecimalFormatEPNS0_5StyleER10UErrorCode.exit, label %_ZN6icu_7712LocalPointerINS_13DecimalFormatEED2Ev.exit.sink.split.i

24:                                               ; preds = %14, %7
  br i1 %5, label %_ZN6icu_7712LocalPointerINS_25ScientificNumberFormatter5StyleEED2Ev.exit19.i, label %25

25:                                               ; preds = %24
  %26 = load ptr, ptr %4, align 8, !tbaa !3
  %27 = getelementptr inbounds nuw i8, ptr %26, i64 8
  %28 = load ptr, ptr %27, align 8
  tail call void %28(ptr noundef nonnull align 8 dereferenceable(8) %4) #7
  br label %_ZN6icu_7712LocalPointerINS_25ScientificNumberFormatter5StyleEED2Ev.exit19.i

_ZN6icu_7712LocalPointerINS_25ScientificNumberFormatter5StyleEED2Ev.exit19.i: ; preds = %25, %24
  %29 = icmp eq ptr %3, null
  br i1 %29, label %_ZN6icu_7725ScientificNumberFormatter14createInstanceEPNS_13DecimalFormatEPNS0_5StyleER10UErrorCode.exit, label %_ZN6icu_7712LocalPointerINS_13DecimalFormatEED2Ev.exit.sink.split.i

_ZN6icu_7712LocalPointerINS_13DecimalFormatEED2Ev.exit.sink.split.i: ; preds = %_ZN6icu_7712LocalPointerINS_25ScientificNumberFormatter5StyleEED2Ev.exit19.i, %21
  %.sink40.i = phi ptr [ %11, %21 ], [ %3, %_ZN6icu_7712LocalPointerINS_25ScientificNumberFormatter5StyleEED2Ev.exit19.i ]
  %30 = load ptr, ptr %.sink40.i, align 8, !tbaa !3
  %31 = getelementptr inbounds nuw i8, ptr %30, i64 8
  %32 = load ptr, ptr %31, align 8
  tail call void %32(ptr noundef nonnull align 8 dereferenceable(72) %.sink40.i) #7
  br label %_ZN6icu_7725ScientificNumberFormatter14createInstanceEPNS_13DecimalFormatEPNS0_5StyleER10UErrorCode.exit

_ZN6icu_7712LocalPointerINS_25ScientificNumberFormatter5StyleEED2Ev.exit.i: ; preds = %17, %15
  %33 = icmp eq ptr %3, null
  br i1 %33, label %_ZN6icu_7712LocalPointerINS_13DecimalFormatEED2Ev.exit20.i, label %34

34:                                               ; preds = %_ZN6icu_7712LocalPointerINS_25ScientificNumberFormatter5StyleEED2Ev.exit.i
  %35 = load ptr, ptr %3, align 8, !tbaa !3
  %36 = getelementptr inbounds nuw i8, ptr %35, i64 8
  %37 = load ptr, ptr %36, align 8
  tail call void %37(ptr noundef nonnull align 8 dereferenceable(72) %3) #7
  br label %_ZN6icu_7712LocalPointerINS_13DecimalFormatEED2Ev.exit20.i

_ZN6icu_7712LocalPointerINS_13DecimalFormatEED2Ev.exit20.i: ; preds = %34, %_ZN6icu_7712LocalPointerINS_25ScientificNumberFormatter5StyleEED2Ev.exit.i
  resume { ptr, i32 } %16

_ZN6icu_7725ScientificNumberFormatter14createInstanceEPNS_13DecimalFormatEPNS0_5StyleER10UErrorCode.exit: ; preds = %21, %_ZN6icu_7712LocalPointerINS_25ScientificNumberFormatter5StyleEED2Ev.exit19.i, %_ZN6icu_7712LocalPointerINS_13DecimalFormatEED2Ev.exit.sink.split.i
  %.03336.i = phi ptr [ null, %_ZN6icu_7712LocalPointerINS_25ScientificNumberFormatter5StyleEED2Ev.exit19.i ], [ %11, %21 ], [ null, %_ZN6icu_7712LocalPointerINS_13DecimalFormatEED2Ev.exit.sink.split.i ]
  ret ptr %.03336.i
}